(lp0
(dp1
Vdomain
p2
V.housing.ubc.ca
p3
sVname
p4
Vticket
p5
sVvalue
p6
Vdhiren12_27-01-2019 16:27:46.265867000
p7
sVpath
p8
V/
p9
sVhttpOnly
p10
I00
sVsecure
p11
I00
sa(dp12
Vdomain
p13
V.housing.ubc.ca
p14
sVname
p15
Vpath_info
p16
sVvalue
p17
V/cwl_auth.home
p18
sVpath
p19
g9
sVhttpOnly
p20
I00
sVsecure
p21
I00
sa(dp22
Vdomain
p23
Vsecure.housing.ubc.ca
p24
sVname
p25
Vattributes
p26
sVvalue
p27
V<credentialType>UsernamePasswordCredential</credentialType><samlAuthenticationStatementAuthMethod>urn:oasis:names:tc:SAML:1.0:am:password</samlAuthenticationStatementAuthMethod><puid>KE3DZ20Q5W02</puid><authenticationMethod>LdapAuthenticationHandler</authenticationMethod><studentNumber>73483026</studentNumber><successfulAuthenticationHandlers>LdapAuthenticationHandler</successfulAuthenticationHandlers><cwlLoginName>dhiren12</cwlLoginName>
p28
sVpath
p29
g9
sVhttpOnly
p30
I01
sVsecure
p31
I00
sa(dp32
Vdomain
p33
Vsecure.housing.ubc.ca
p34
sVname
p35
V.ASPXAUTH
p36
sVvalue
p37
V5D474A4701D2BDCE2D0371ABCC1FCD61C9A2AB1E7FF1E31B8A4D060038AADE17AF3D97D85247E54E32A4E9317F49402A3B88F77EDA0A2FABAA89C49CBADF755A76B362984F10733D7A0BD74268998141714094E27149D18F6687E77BEFB83269D03263BCA98F8AE17237F9221A557580795C6C60638FC88E1B266060772488CCE650EA64C915FCB3EFDB1CD40C07B156C46150DBCB42AE8E6BF1AD7C49E6234827173E25D1AA24608CC787C4865CA9FEBDAFC89DC9E0F81D88C5266FDDC85D82072DCC28E18809A3106D6496C3B2F77EE4A0459DB6156DD0D3AE1F2D79723015DDC884A3
p38
sVpath
p39
g9
sVhttpOnly
p40
I01
sVsecure
p41
I00
sa(dp42
Vdomain
p43
Vsecure.housing.ubc.ca
p44
sVname
p45
Vquery_string
p46
sVvalue
p47
V/cas/sgw/cwl_auth.home
p48
sVpath
p49
g9
sVhttpOnly
p50
I01
sVsecure
p51
I00
sa(dp52
Vdomain
p53
V.housing.ubc.ca
p54
sVname
p55
Vquery_string
p56
sVvalue
p57
V
p58
sVpath
p59
g9
sVhttpOnly
p60
I00
sVsecure
p61
I00
sa(dp62
Vdomain
p63
Vsecure.housing.ubc.ca
p64
sVname
p65
Vpath_info
p66
sVvalue
p67
V/cas/sgw/cwl_auth.home
p68
sVpath
p69
g9
sVhttpOnly
p70
I01
sVsecure
p71
I00
sa.