(lp0
(dp1
Vdomain
p2
V.housing.ubc.ca
p3
sVname
p4
Vticket
p5
sVvalue
p6
Vra3738_27-01-2019 12:52:08.360812000
p7
sVpath
p8
V/
p9
sVhttpOnly
p10
I00
sVsecure
p11
I00
sa(dp12
Vdomain
p13
V.housing.ubc.ca
p14
sVname
p15
Vpath_info
p16
sVvalue
p17
V/cwl_auth.home
p18
sVpath
p19
g9
sVhttpOnly
p20
I00
sVsecure
p21
I00
sa(dp22
Vdomain
p23
Vsecure.housing.ubc.ca
p24
sVname
p25
Vattributes
p26
sVvalue
p27
V<credentialType>UsernamePasswordCredential</credentialType><samlAuthenticationStatementAuthMethod>urn:oasis:names:tc:SAML:1.0:am:password</samlAuthenticationStatementAuthMethod><puid>IHV915JN7M02</puid><authenticationMethod>LdapAuthenticationHandler</authenticationMethod><studentNumber>73848038</studentNumber><successfulAuthenticationHandlers>LdapAuthenticationHandler</successfulAuthenticationHandlers><cwlLoginName>ra3738</cwlLoginName>
p28
sVpath
p29
g9
sVhttpOnly
p30
I01
sVsecure
p31
I00
sa(dp32
Vdomain
p33
Vsecure.housing.ubc.ca
p34
sVname
p35
V.ASPXAUTH
p36
sVvalue
p37
V2A597E32BBE1A79D790CB02FCAA9C604D363ECF43CAF2F2AF7EB808896CFBAE8EACD3B512F5D2BB40BB224D053948D69E79850049D3B8D3DFBC6B0DDCAE3565702200DD15836F17800B9BBB91EC0AFF3974A8403497C1A6B8092F0035D4DB23BE1C0609C986E11169EB0D99141A0103C9AC41E9611F2B00999C9B711239A60A40F34B360871EFE3775105FE070CD5703694477995AD82FCB0C641B2F9725F9B912F361D416F7906EC8C8A857EF849982D06EA4F4E10AADB006835726FF8193CE95CD6D9C023376D01A832042BDA5D21D21B8EE31A712ED657860C7B4D69B02DDC7E4DBF1
p38
sVpath
p39
g9
sVhttpOnly
p40
I01
sVsecure
p41
I00
sa(dp42
Vdomain
p43
Vsecure.housing.ubc.ca
p44
sVname
p45
Vquery_string
p46
sVvalue
p47
V/cas/sgw/cwl_auth.home
p48
sVpath
p49
g9
sVhttpOnly
p50
I01
sVsecure
p51
I00
sa(dp52
Vdomain
p53
V.housing.ubc.ca
p54
sVname
p55
Vquery_string
p56
sVvalue
p57
V
p58
sVpath
p59
g9
sVhttpOnly
p60
I00
sVsecure
p61
I00
sa(dp62
Vdomain
p63
Vsecure.housing.ubc.ca
p64
sVname
p65
Vpath_info
p66
sVvalue
p67
V/cas/sgw/cwl_auth.home
p68
sVpath
p69
g9
sVhttpOnly
p70
I01
sVsecure
p71
I00
sa.