(lp0
(dp1
Vdomain
p2
V.housing.ubc.ca
p3
sVname
p4
Vticket
p5
sVvalue
p6
Vra3738_27-01-2019 13:04:39.536368000
p7
sVpath
p8
V/
p9
sVhttpOnly
p10
I00
sVsecure
p11
I00
sa(dp12
Vdomain
p13
V.housing.ubc.ca
p14
sVname
p15
Vpath_info
p16
sVvalue
p17
V/cwl_auth.home
p18
sVpath
p19
g9
sVhttpOnly
p20
I00
sVsecure
p21
I00
sa(dp22
Vdomain
p23
Vsecure.housing.ubc.ca
p24
sVname
p25
Vattributes
p26
sVvalue
p27
V<credentialType>UsernamePasswordCredential</credentialType><samlAuthenticationStatementAuthMethod>urn:oasis:names:tc:SAML:1.0:am:password</samlAuthenticationStatementAuthMethod><puid>IHV915JN7M02</puid><authenticationMethod>LdapAuthenticationHandler</authenticationMethod><studentNumber>73848038</studentNumber><successfulAuthenticationHandlers>LdapAuthenticationHandler</successfulAuthenticationHandlers><cwlLoginName>ra3738</cwlLoginName>
p28
sVpath
p29
g9
sVhttpOnly
p30
I01
sVsecure
p31
I00
sa(dp32
Vdomain
p33
Vsecure.housing.ubc.ca
p34
sVname
p35
V.ASPXAUTH
p36
sVvalue
p37
V9BD16EAFD3BB6772ED72FDFF48F7977B66F26584E64BB23ECAE47F6ED2520B3DECB2F8D28233BFE902E0CDCA01AA6724243752AF60A6543FAA825F5B620D55F5EC0BA440CA6B18901EAD31B809478F4005185BDF080FE7DD1856BB852D7D0362B6BC6E7A74549F981875EF88C258A37900215478EF3D42C1C6BFDC129CF24A5656BB4A6ED63C57B61E9EE236821ABAC1E853AE06B1D1036EA6522637A5287848B5E884EAABEA8E2AE099450DD33E74B906CF9EBC1DCAD7182EEB3BDE7F312259346D309C0950B67B76008D77C537BA73159C68D7C40483CE113BA4BDC7DA873FD09D005C
p38
sVpath
p39
g9
sVhttpOnly
p40
I01
sVsecure
p41
I00
sa(dp42
Vdomain
p43
Vsecure.housing.ubc.ca
p44
sVname
p45
Vquery_string
p46
sVvalue
p47
V/cas/sgw/cwl_auth.home
p48
sVpath
p49
g9
sVhttpOnly
p50
I01
sVsecure
p51
I00
sa(dp52
Vdomain
p53
V.housing.ubc.ca
p54
sVname
p55
Vquery_string
p56
sVvalue
p57
V
p58
sVpath
p59
g9
sVhttpOnly
p60
I00
sVsecure
p61
I00
sa(dp62
Vdomain
p63
Vsecure.housing.ubc.ca
p64
sVname
p65
Vpath_info
p66
sVvalue
p67
V/cas/sgw/cwl_auth.home
p68
sVpath
p69
g9
sVhttpOnly
p70
I01
sVsecure
p71
I00
sa.