(lp0
(dp1
Vdomain
p2
V.housing.ubc.ca
p3
sVname
p4
Vticket
p5
sVvalue
p6
Vdhiren12_27-01-2019 12:01:46.616508000
p7
sVpath
p8
V/
p9
sVhttpOnly
p10
I00
sVsecure
p11
I00
sa(dp12
Vdomain
p13
V.housing.ubc.ca
p14
sVname
p15
Vpath_info
p16
sVvalue
p17
V/cwl_auth.home
p18
sVpath
p19
g9
sVhttpOnly
p20
I00
sVsecure
p21
I00
sa(dp22
Vdomain
p23
Vsecure.housing.ubc.ca
p24
sVname
p25
Vattributes
p26
sVvalue
p27
V<credentialType>UsernamePasswordCredential</credentialType><samlAuthenticationStatementAuthMethod>urn:oasis:names:tc:SAML:1.0:am:password</samlAuthenticationStatementAuthMethod><puid>KE3DZ20Q5W02</puid><authenticationMethod>LdapAuthenticationHandler</authenticationMethod><studentNumber>73483026</studentNumber><successfulAuthenticationHandlers>LdapAuthenticationHandler</successfulAuthenticationHandlers><cwlLoginName>dhiren12</cwlLoginName>
p28
sVpath
p29
g9
sVhttpOnly
p30
I01
sVsecure
p31
I00
sa(dp32
Vdomain
p33
Vsecure.housing.ubc.ca
p34
sVname
p35
V.ASPXAUTH
p36
sVvalue
p37
VD9C317AC8FFD8CE70B4080E86DB8D21FEE132F46AD3A4CBD7F38747564079C0BC1C4C9801643868F17DEEDD2999128DE7584D00430210EBCD3E8C5EC120DA5EFA5DD83F423B1900B830E7D59365B9584ADD5C909989712D7CEAAAFB282F914FF904604758E981F594A80035DAFE8D1F0CEBD9552805AF2E569B0FCDDE1F5F7D689C9CD35D730B1A90059147A17EC3F75C7B0569B2D6A5E154541F752BAE56D5B2AF49CBB8D870C1F3D9AE3EB62FACAB234C523C763F64E64B8CAAA7A655B051FA8114EBD26E33020262E62C83F21AB95FE01648FB0591B665666DDD1B3F706D081610AF1
p38
sVpath
p39
g9
sVhttpOnly
p40
I01
sVsecure
p41
I00
sa(dp42
Vdomain
p43
Vsecure.housing.ubc.ca
p44
sVname
p45
Vquery_string
p46
sVvalue
p47
V/cas/sgw/cwl_auth.home
p48
sVpath
p49
g9
sVhttpOnly
p50
I01
sVsecure
p51
I00
sa(dp52
Vdomain
p53
V.housing.ubc.ca
p54
sVname
p55
Vquery_string
p56
sVvalue
p57
V
p58
sVpath
p59
g9
sVhttpOnly
p60
I00
sVsecure
p61
I00
sa(dp62
Vdomain
p63
Vsecure.housing.ubc.ca
p64
sVname
p65
Vpath_info
p66
sVvalue
p67
V/cas/sgw/cwl_auth.home
p68
sVpath
p69
g9
sVhttpOnly
p70
I01
sVsecure
p71
I00
sa.