(lp0
(dp1
Vdomain
p2
V.housing.ubc.ca
p3
sVname
p4
Vticket
p5
sVvalue
p6
Vra3738_27-01-2019 00:57:07.676908000
p7
sVpath
p8
V/
p9
sVhttpOnly
p10
I00
sVsecure
p11
I00
sa(dp12
Vdomain
p13
V.housing.ubc.ca
p14
sVname
p15
Vpath_info
p16
sVvalue
p17
V/cwl_auth.home
p18
sVpath
p19
g9
sVhttpOnly
p20
I00
sVsecure
p21
I00
sa(dp22
Vdomain
p23
Vsecure.housing.ubc.ca
p24
sVname
p25
Vattributes
p26
sVvalue
p27
V<credentialType>UsernamePasswordCredential</credentialType><samlAuthenticationStatementAuthMethod>urn:oasis:names:tc:SAML:1.0:am:password</samlAuthenticationStatementAuthMethod><puid>IHV915JN7M02</puid><authenticationMethod>LdapAuthenticationHandler</authenticationMethod><studentNumber>73848038</studentNumber><successfulAuthenticationHandlers>LdapAuthenticationHandler</successfulAuthenticationHandlers><cwlLoginName>ra3738</cwlLoginName>
p28
sVpath
p29
g9
sVhttpOnly
p30
I01
sVsecure
p31
I00
sa(dp32
Vdomain
p33
Vsecure.housing.ubc.ca
p34
sVname
p35
V.ASPXAUTH
p36
sVvalue
p37
V0E41A7D9A624C356D646F3A227125A6CB2882A5CDC6AC02227F1BA9684667DAAB09C10513907A9A9FD2EBDE6F8765E65D9AB49CC8EB470D8CF69D47EFD68044BB2CE348AAA5F72CA71AAF31E7925660F0CF170E09EA3E9B8B0D72683FAE969F1148A764AC507BE9B2861B69BDCC7E6887E0780A7854525C2C1A517FF2E98088E3AF01183C09E724E55D6847DA222654DFC665451F4E82084C6CB7333D59668B52004639684DDD7DD7F6FC42C0DC7466CE166FE63138F2161116408B8A593C9546359AD811763D85C052FDDCA693C694B9DDEF9ECCD3C98B1899975AE366ECFF8B9EAFE30
p38
sVpath
p39
g9
sVhttpOnly
p40
I01
sVsecure
p41
I00
sa(dp42
Vdomain
p43
Vsecure.housing.ubc.ca
p44
sVname
p45
Vquery_string
p46
sVvalue
p47
V/cas/sgw/cwl_auth.home
p48
sVpath
p49
g9
sVhttpOnly
p50
I01
sVsecure
p51
I00
sa(dp52
Vdomain
p53
V.housing.ubc.ca
p54
sVname
p55
Vquery_string
p56
sVvalue
p57
V
p58
sVpath
p59
g9
sVhttpOnly
p60
I00
sVsecure
p61
I00
sa(dp62
Vdomain
p63
Vsecure.housing.ubc.ca
p64
sVname
p65
Vpath_info
p66
sVvalue
p67
V/cas/sgw/cwl_auth.home
p68
sVpath
p69
g9
sVhttpOnly
p70
I01
sVsecure
p71
I00
sa.